target datalayout = "e-m:e-p270:32:32-p271:32:32-p272:64:64-i64:64-i128:128-f80:128-n8:16:32:64-S128"
target triple = "x86_64-pc-linux-gnu"

%struct.DdManager = type { %struct.DdNode, ptr, ptr, ptr, ptr, ptr, ptr, ptr, i32, i32, double, double, double, i32, i32, i32, i32, i32, i32, ptr, ptr, %struct.DdSubtable, i32, i32, i32, i32, i32, i32, i32, double, i32, i32, i32, ptr, i64, double, i32, ptr, ptr, ptr, ptr, ptr, ptr, ptr, i32, ptr, ptr, ptr, ptr, ptr, ptr, i32, i32, i32, double, i32, i32, i32, i32, double, double, i32, i32, i32, i32, i32, i32, i32, i32, i32, ptr, ptr, i32, i32, i32, i32, i32, i32, ptr, ptr, ptr, ptr, ptr, ptr, ptr, ptr, i32, i64, i64, i64, i32, i64, i64, double, double, double, double, double, double, i32, ptr, ptr, i64 }
%struct.DdNode = type { i32, i32, ptr, %union.anon, i64 }
%union.anon = type { %struct.DdChildren }
%struct.DdChildren = type { ptr, ptr }
%struct.DdSubtable = type { ptr, i32, i32, i32, i32, i32, i32, i32, i32, i32, i32, i32 }
%struct.Move = type { i32, i32, i32, i32, ptr }

; Function Attrs: nounwind uwtable
define internal i32 @zdd_group_move(ptr noundef %0, i32 noundef %1, i32 noundef %2, ptr noundef %3) #0 {
  %5 = alloca i32, align 4
  %6 = alloca ptr, align 8
  %7 = alloca i32, align 4
  %8 = alloca i32, align 4
  %9 = alloca ptr, align 8
  %10 = alloca ptr, align 8
  %11 = alloca i32, align 4
  %12 = alloca i32, align 4
  %13 = alloca i32, align 4
  %14 = alloca i32, align 4
  %15 = alloca i32, align 4
  %16 = alloca i32, align 4
  %17 = alloca i32, align 4
  %18 = alloca i32, align 4
  %19 = alloca i32, align 4
  %20 = alloca i32, align 4
  store ptr %0, ptr %6, align 8, !tbaa !3
  store i32 %1, ptr %7, align 4, !tbaa !8
  store i32 %2, ptr %8, align 4, !tbaa !8
  store ptr %3, ptr %9, align 8, !tbaa !120
  call void @llvm.lifetime.start.p0(i64 8, ptr %10) #5
  call void @llvm.lifetime.start.p0(i64 4, ptr %11) #5
  call void @llvm.lifetime.start.p0(i64 4, ptr %12) #5
  call void @llvm.lifetime.start.p0(i64 4, ptr %13) #5
  call void @llvm.lifetime.start.p0(i64 4, ptr %14) #5
  call void @llvm.lifetime.start.p0(i64 4, ptr %15) #5
  call void @llvm.lifetime.start.p0(i64 4, ptr %16) #5
  call void @llvm.lifetime.start.p0(i64 4, ptr %17) #5
  call void @llvm.lifetime.start.p0(i64 4, ptr %18) #5
  store i32 -1, ptr %18, align 4, !tbaa !8
  call void @llvm.lifetime.start.p0(i64 4, ptr %19) #5
  store i32 -1, ptr %19, align 4, !tbaa !8
  %21 = load ptr, ptr %6, align 8, !tbaa !3
  %22 = getelementptr inbounds nuw %struct.DdManager, ptr %21, i32 0, i32 20
  %23 = load ptr, ptr %22, align 8, !tbaa !10
  %24 = load i32, ptr %7, align 4, !tbaa !8
  %25 = sext i32 %24 to i64
  %26 = getelementptr inbounds %struct.DdSubtable, ptr %23, i64 %25
  %27 = getelementptr inbounds nuw %struct.DdSubtable, ptr %26, i32 0, i32 6
  %28 = load i32, ptr %27, align 4, !tbaa !27
  store i32 %28, ptr %14, align 4, !tbaa !8
  %29 = load i32, ptr %7, align 4, !tbaa !8
  store i32 %29, ptr %15, align 4, !tbaa !8
  %30 = load ptr, ptr %6, align 8, !tbaa !3
  %31 = getelementptr inbounds nuw %struct.DdManager, ptr %30, i32 0, i32 20
  %32 = load ptr, ptr %31, align 8, !tbaa !10
  %33 = load i32, ptr %8, align 4, !tbaa !8
  %34 = sext i32 %33 to i64
  %35 = getelementptr inbounds %struct.DdSubtable, ptr %32, i64 %34
  %36 = getelementptr inbounds nuw %struct.DdSubtable, ptr %35, i32 0, i32 6
  %37 = load i32, ptr %36, align 4, !tbaa !27
  store i32 %37, ptr %16, align 4, !tbaa !8
  br label %38

38:                                               ; preds = %49, %4
  %39 = load ptr, ptr %6, align 8, !tbaa !3
  %40 = getelementptr inbounds nuw %struct.DdManager, ptr %39, i32 0, i32 20
  %41 = load ptr, ptr %40, align 8, !tbaa !10
  %42 = load i32, ptr %16, align 4, !tbaa !8
  %43 = sext i32 %42 to i64
  %44 = getelementptr inbounds %struct.DdSubtable, ptr %41, i64 %43
  %45 = getelementptr inbounds nuw %struct.DdSubtable, ptr %44, i32 0, i32 6
  %46 = load i32, ptr %45, align 4, !tbaa !27
  %47 = load i32, ptr %8, align 4, !tbaa !8
  %48 = icmp ne i32 %46, %47
  br i1 %48, label %49, label %58

49:                                               ; preds = %38
  %50 = load ptr, ptr %6, align 8, !tbaa !3
  %51 = getelementptr inbounds nuw %struct.DdManager, ptr %50, i32 0, i32 20
  %52 = load ptr, ptr %51, align 8, !tbaa !10
  %53 = load i32, ptr %16, align 4, !tbaa !8
  %54 = sext i32 %53 to i64
  %55 = getelementptr inbounds %struct.DdSubtable, ptr %52, i64 %54
  %56 = getelementptr inbounds nuw %struct.DdSubtable, ptr %55, i32 0, i32 6
  %57 = load i32, ptr %56, align 4, !tbaa !27
  store i32 %57, ptr %16, align 4, !tbaa !8
  br label %38, !llvm.loop !122

58:                                               ; preds = %38
  %59 = load i32, ptr %16, align 4, !tbaa !8
  store i32 %59, ptr %17, align 4, !tbaa !8
  br label %60

60:                                               ; preds = %210, %58
  %61 = load i32, ptr %7, align 4, !tbaa !8
  %62 = load i32, ptr %8, align 4, !tbaa !8
  %63 = icmp sle i32 %61, %62
  br i1 %63, label %64, label %217

64:                                               ; preds = %60
  br label %65

65:                                               ; preds = %182, %64
  %66 = load i32, ptr %8, align 4, !tbaa !8
  %67 = load i32, ptr %14, align 4, !tbaa !8
  %68 = icmp sgt i32 %66, %67
  br i1 %68, label %69, label %188

69:                                               ; preds = %65
  %70 = load ptr, ptr %6, align 8, !tbaa !3
  %71 = getelementptr inbounds nuw %struct.DdManager, ptr %70, i32 0, i32 20
  %72 = load ptr, ptr %71, align 8, !tbaa !10
  %73 = load i32, ptr %7, align 4, !tbaa !8
  %74 = sext i32 %73 to i64
  %75 = getelementptr inbounds %struct.DdSubtable, ptr %72, i64 %74
  %76 = getelementptr inbounds nuw %struct.DdSubtable, ptr %75, i32 0, i32 6
  %77 = load i32, ptr %76, align 4, !tbaa !27
  store i32 %77, ptr %13, align 4, !tbaa !8
  %78 = load i32, ptr %13, align 4, !tbaa !8
  %79 = load i32, ptr %7, align 4, !tbaa !8
  %80 = icmp eq i32 %78, %79
  br i1 %80, label %81, label %83

81:                                               ; preds = %69
  %82 = load i32, ptr %8, align 4, !tbaa !8
  store i32 %82, ptr %13, align 4, !tbaa !8
  br label %83

83:                                               ; preds = %81, %69
  %84 = load i32, ptr %14, align 4, !tbaa !8
  store i32 %84, ptr %12, align 4, !tbaa !8
  br label %85

85:                                               ; preds = %114, %83
  %86 = load ptr, ptr %6, align 8, !tbaa !3
  %87 = getelementptr inbounds nuw %struct.DdManager, ptr %86, i32 0, i32 20
  %88 = load ptr, ptr %87, align 8, !tbaa !10
  %89 = load i32, ptr %12, align 4, !tbaa !8
  %90 = sext i32 %89 to i64
  %91 = getelementptr inbounds %struct.DdSubtable, ptr %88, i64 %90
  %92 = getelementptr inbounds nuw %struct.DdSubtable, ptr %91, i32 0, i32 6
  %93 = load i32, ptr %92, align 4, !tbaa !27
  %94 = load i32, ptr %7, align 4, !tbaa !8
  %95 = icmp eq i32 %93, %94
  br i1 %95, label %96, label %105

96:                                               ; preds = %85
  %97 = load i32, ptr %8, align 4, !tbaa !8
  %98 = load ptr, ptr %6, align 8, !tbaa !3
  %99 = getelementptr inbounds nuw %struct.DdManager, ptr %98, i32 0, i32 20
  %100 = load ptr, ptr %99, align 8, !tbaa !10
  %101 = load i32, ptr %12, align 4, !tbaa !8
  %102 = sext i32 %101 to i64
  %103 = getelementptr inbounds %struct.DdSubtable, ptr %100, i64 %102
  %104 = getelementptr inbounds nuw %struct.DdSubtable, ptr %103, i32 0, i32 6
  store i32 %97, ptr %104, align 4, !tbaa !27
  br label %115

105:                                              ; preds = %85
  %106 = load ptr, ptr %6, align 8, !tbaa !3
  %107 = getelementptr inbounds nuw %struct.DdManager, ptr %106, i32 0, i32 20
  %108 = load ptr, ptr %107, align 8, !tbaa !10
  %109 = load i32, ptr %12, align 4, !tbaa !8
  %110 = sext i32 %109 to i64
  %111 = getelementptr inbounds %struct.DdSubtable, ptr %108, i64 %110
  %112 = getelementptr inbounds nuw %struct.DdSubtable, ptr %111, i32 0, i32 6
  %113 = load i32, ptr %112, align 4, !tbaa !27
  store i32 %113, ptr %12, align 4, !tbaa !8
  br label %114

114:                                              ; preds = %105
  br label %85

115:                                              ; preds = %96
  %116 = load ptr, ptr %6, align 8, !tbaa !3
  %117 = getelementptr inbounds nuw %struct.DdManager, ptr %116, i32 0, i32 20
  %118 = load ptr, ptr %117, align 8, !tbaa !10
  %119 = load i32, ptr %8, align 4, !tbaa !8
  %120 = sext i32 %119 to i64
  %121 = getelementptr inbounds %struct.DdSubtable, ptr %118, i64 %120
  %122 = getelementptr inbounds nuw %struct.DdSubtable, ptr %121, i32 0, i32 6
  %123 = load i32, ptr %122, align 4, !tbaa !27
  %124 = load i32, ptr %8, align 4, !tbaa !8
  %125 = icmp ne i32 %123, %124
  br i1 %125, label %126, label %142

126:                                              ; preds = %115
  %127 = load ptr, ptr %6, align 8, !tbaa !3
  %128 = getelementptr inbounds nuw %struct.DdManager, ptr %127, i32 0, i32 20
  %129 = load ptr, ptr %128, align 8, !tbaa !10
  %130 = load i32, ptr %8, align 4, !tbaa !8
  %131 = sext i32 %130 to i64
  %132 = getelementptr inbounds %struct.DdSubtable, ptr %129, i64 %131
  %133 = getelementptr inbounds nuw %struct.DdSubtable, ptr %132, i32 0, i32 6
  %134 = load i32, ptr %133, align 4, !tbaa !27
  %135 = load ptr, ptr %6, align 8, !tbaa !3
  %136 = getelementptr inbounds nuw %struct.DdManager, ptr %135, i32 0, i32 20
  %137 = load ptr, ptr %136, align 8, !tbaa !10
  %138 = load i32, ptr %7, align 4, !tbaa !8
  %139 = sext i32 %138 to i64
  %140 = getelementptr inbounds %struct.DdSubtable, ptr %137, i64 %139
  %141 = getelementptr inbounds nuw %struct.DdSubtable, ptr %140, i32 0, i32 6
  store i32 %134, ptr %141, align 4, !tbaa !27
  br label %151

142:                                              ; preds = %115
  %143 = load i32, ptr %7, align 4, !tbaa !8
  %144 = load ptr, ptr %6, align 8, !tbaa !3
  %145 = getelementptr inbounds nuw %struct.DdManager, ptr %144, i32 0, i32 20
  %146 = load ptr, ptr %145, align 8, !tbaa !10
  %147 = load i32, ptr %7, align 4, !tbaa !8
  %148 = sext i32 %147 to i64
  %149 = getelementptr inbounds %struct.DdSubtable, ptr %146, i64 %148
  %150 = getelementptr inbounds nuw %struct.DdSubtable, ptr %149, i32 0, i32 6
  store i32 %143, ptr %150, align 4, !tbaa !27
  br label %151

151:                                              ; preds = %142, %126
  %152 = load i32, ptr %17, align 4, !tbaa !8
  %153 = load i32, ptr %8, align 4, !tbaa !8
  %154 = icmp ne i32 %152, %153
  br i1 %154, label %155, label %164

155:                                              ; preds = %151
  %156 = load i32, ptr %7, align 4, !tbaa !8
  %157 = load ptr, ptr %6, align 8, !tbaa !3
  %158 = getelementptr inbounds nuw %struct.DdManager, ptr %157, i32 0, i32 20
  %159 = load ptr, ptr %158, align 8, !tbaa !10
  %160 = load i32, ptr %17, align 4, !tbaa !8
  %161 = sext i32 %160 to i64
  %162 = getelementptr inbounds %struct.DdSubtable, ptr %159, i64 %161
  %163 = getelementptr inbounds nuw %struct.DdSubtable, ptr %162, i32 0, i32 6
  store i32 %156, ptr %163, align 4, !tbaa !27
  br label %166

164:                                              ; preds = %151
  %165 = load i32, ptr %7, align 4, !tbaa !8
  store i32 %165, ptr %17, align 4, !tbaa !8
  br label %166

166:                                              ; preds = %164, %155
  %167 = load i32, ptr %13, align 4, !tbaa !8
  %168 = load ptr, ptr %6, align 8, !tbaa !3
  %169 = getelementptr inbounds nuw %struct.DdManager, ptr %168, i32 0, i32 20
  %170 = load ptr, ptr %169, align 8, !tbaa !10
  %171 = load i32, ptr %8, align 4, !tbaa !8
  %172 = sext i32 %171 to i64
  %173 = getelementptr inbounds %struct.DdSubtable, ptr %170, i64 %172
  %174 = getelementptr inbounds nuw %struct.DdSubtable, ptr %173, i32 0, i32 6
  store i32 %167, ptr %174, align 4, !tbaa !27
  %175 = load ptr, ptr %6, align 8, !tbaa !3
  %176 = load i32, ptr %7, align 4, !tbaa !8
  %177 = load i32, ptr %8, align 4, !tbaa !8
  %178 = call i32 @cuddZddSwapInPlace(ptr noundef %175, i32 noundef %176, i32 noundef %177)
  store i32 %178, ptr %11, align 4, !tbaa !8
  %179 = load i32, ptr %11, align 4, !tbaa !8
  %180 = icmp eq i32 %179, 0
  br i1 %180, label %181, label %182

181:                                              ; preds = %166
  br label %244

182:                                              ; preds = %166
  %183 = load i32, ptr %7, align 4, !tbaa !8
  store i32 %183, ptr %18, align 4, !tbaa !8
  %184 = load i32, ptr %8, align 4, !tbaa !8
  store i32 %184, ptr %19, align 4, !tbaa !8
  %185 = load i32, ptr %7, align 4, !tbaa !8
  store i32 %185, ptr %8, align 4, !tbaa !8
  %186 = load i32, ptr %7, align 4, !tbaa !8
  %187 = add nsw i32 %186, -1
  store i32 %187, ptr %7, align 4, !tbaa !8
  br label %65, !llvm.loop !123

188:                                              ; preds = %65
  %189 = load ptr, ptr %6, align 8, !tbaa !3
  %190 = getelementptr inbounds nuw %struct.DdManager, ptr %189, i32 0, i32 20
  %191 = load ptr, ptr %190, align 8, !tbaa !10
  %192 = load i32, ptr %8, align 4, !tbaa !8
  %193 = sext i32 %192 to i64
  %194 = getelementptr inbounds %struct.DdSubtable, ptr %191, i64 %193
  %195 = getelementptr inbounds nuw %struct.DdSubtable, ptr %194, i32 0, i32 6
  %196 = load i32, ptr %195, align 4, !tbaa !27
  %197 = load i32, ptr %8, align 4, !tbaa !8
  %198 = icmp ule i32 %196, %197
  br i1 %198, label %199, label %201

199:                                              ; preds = %188
  %200 = load i32, ptr %8, align 4, !tbaa !8
  store i32 %200, ptr %16, align 4, !tbaa !8
  br label %210

201:                                              ; preds = %188
  %202 = load ptr, ptr %6, align 8, !tbaa !3
  %203 = getelementptr inbounds nuw %struct.DdManager, ptr %202, i32 0, i32 20
  %204 = load ptr, ptr %203, align 8, !tbaa !10
  %205 = load i32, ptr %8, align 4, !tbaa !8
  %206 = sext i32 %205 to i64
  %207 = getelementptr inbounds %struct.DdSubtable, ptr %204, i64 %206
  %208 = getelementptr inbounds nuw %struct.DdSubtable, ptr %207, i32 0, i32 6
  %209 = load i32, ptr %208, align 4, !tbaa !27
  store i32 %209, ptr %8, align 4, !tbaa !8
  br label %210

210:                                              ; preds = %201, %199
  %211 = load i32, ptr %14, align 4, !tbaa !8
  store i32 %211, ptr %17, align 4, !tbaa !8
  %212 = load i32, ptr %14, align 4, !tbaa !8
  %213 = add nsw i32 %212, 1
  store i32 %213, ptr %14, align 4, !tbaa !8
  %214 = load i32, ptr %15, align 4, !tbaa !8
  %215 = add nsw i32 %214, 1
  store i32 %215, ptr %15, align 4, !tbaa !8
  %216 = load i32, ptr %15, align 4, !tbaa !8
  store i32 %216, ptr %7, align 4, !tbaa !8
  br label %60, !llvm.loop !124

217:                                              ; preds = %60
  %218 = load ptr, ptr %6, align 8, !tbaa !3
  %219 = call ptr @cuddDynamicAllocNode(ptr noundef %218)
  store ptr %219, ptr %10, align 8, !tbaa !56
  %220 = load ptr, ptr %10, align 8, !tbaa !56
  %221 = icmp eq ptr %220, null
  br i1 %221, label %222, label %223

222:                                              ; preds = %217
  br label %244

223:                                              ; preds = %217
  %224 = load i32, ptr %18, align 4, !tbaa !8
  %225 = load ptr, ptr %10, align 8, !tbaa !56
  %226 = getelementptr inbounds nuw %struct.Move, ptr %225, i32 0, i32 0
  store i32 %224, ptr %226, align 8, !tbaa !67
  %227 = load i32, ptr %19, align 4, !tbaa !8
  %228 = load ptr, ptr %10, align 8, !tbaa !56
  %229 = getelementptr inbounds nuw %struct.Move, ptr %228, i32 0, i32 1
  store i32 %227, ptr %229, align 4, !tbaa !62
  %230 = load ptr, ptr %6, align 8, !tbaa !3
  %231 = getelementptr inbounds nuw %struct.DdManager, ptr %230, i32 0, i32 24
  %232 = load i32, ptr %231, align 8, !tbaa !55
  %233 = load ptr, ptr %10, align 8, !tbaa !56
  %234 = getelementptr inbounds nuw %struct.Move, ptr %233, i32 0, i32 3
  store i32 %232, ptr %234, align 4, !tbaa !111
  %235 = load ptr, ptr %9, align 8, !tbaa !120
  %236 = load ptr, ptr %235, align 8, !tbaa !56
  %237 = load ptr, ptr %10, align 8, !tbaa !56
  %238 = getelementptr inbounds nuw %struct.Move, ptr %237, i32 0, i32 4
  store ptr %236, ptr %238, align 8, !tbaa !72
  %239 = load ptr, ptr %10, align 8, !tbaa !56
  %240 = load ptr, ptr %9, align 8, !tbaa !120
  store ptr %239, ptr %240, align 8, !tbaa !56
  %241 = load ptr, ptr %6, align 8, !tbaa !3
  %242 = getelementptr inbounds nuw %struct.DdManager, ptr %241, i32 0, i32 24
  %243 = load i32, ptr %242, align 8, !tbaa !55
  store i32 %243, ptr %5, align 4
  store i32 1, ptr %20, align 4
  br label %270

244:                                              ; preds = %222, %181
  br label %245

245:                                              ; preds = %249, %244
  %246 = load ptr, ptr %9, align 8, !tbaa !120
  %247 = load ptr, ptr %246, align 8, !tbaa !56
  %248 = icmp ne ptr %247, null
  br i1 %248, label %249, label %269

249:                                              ; preds = %245
  %250 = load ptr, ptr %9, align 8, !tbaa !120
  %251 = load ptr, ptr %250, align 8, !tbaa !56
  %252 = getelementptr inbounds nuw %struct.Move, ptr %251, i32 0, i32 4
  %253 = load ptr, ptr %252, align 8, !tbaa !72
  store ptr %253, ptr %10, align 8, !tbaa !56
  %254 = load ptr, ptr %9, align 8, !tbaa !120
  %255 = load ptr, ptr %254, align 8, !tbaa !56
  %256 = getelementptr inbounds nuw %struct.DdNode, ptr %255, i32 0, i32 1
  store i32 0, ptr %256, align 4, !tbaa !42
  %257 = load ptr, ptr %6, align 8, !tbaa !3
  %258 = getelementptr inbounds nuw %struct.DdManager, ptr %257, i32 0, i32 48
  %259 = load ptr, ptr %258, align 8, !tbaa !73
  %260 = load ptr, ptr %9, align 8, !tbaa !120
  %261 = load ptr, ptr %260, align 8, !tbaa !56
  %262 = getelementptr inbounds nuw %struct.DdNode, ptr %261, i32 0, i32 2
  store ptr %259, ptr %262, align 8, !tbaa !39
  %263 = load ptr, ptr %9, align 8, !tbaa !120
  %264 = load ptr, ptr %263, align 8, !tbaa !56
  %265 = load ptr, ptr %6, align 8, !tbaa !3
  %266 = getelementptr inbounds nuw %struct.DdManager, ptr %265, i32 0, i32 48
  store ptr %264, ptr %266, align 8, !tbaa !73
  %267 = load ptr, ptr %10, align 8, !tbaa !56
  %268 = load ptr, ptr %9, align 8, !tbaa !120
  store ptr %267, ptr %268, align 8, !tbaa !56
  br label %245, !llvm.loop !125

269:                                              ; preds = %245
  store i32 0, ptr %5, align 4
  store i32 1, ptr %20, align 4
  br label %270

270:                                              ; preds = %269, %223
  call void @llvm.lifetime.end.p0(i64 4, ptr %19) #5
  call void @llvm.lifetime.end.p0(i64 4, ptr %18) #5
  call void @llvm.lifetime.end.p0(i64 4, ptr %17) #5
  call void @llvm.lifetime.end.p0(i64 4, ptr %16) #5
  call void @llvm.lifetime.end.p0(i64 4, ptr %15) #5
  call void @llvm.lifetime.end.p0(i64 4, ptr %14) #5
  call void @llvm.lifetime.end.p0(i64 4, ptr %13) #5
  call void @llvm.lifetime.end.p0(i64 4, ptr %12) #5
  call void @llvm.lifetime.end.p0(i64 4, ptr %11) #5
  call void @llvm.lifetime.end.p0(i64 8, ptr %10) #5
  %271 = load i32, ptr %5, align 4
  ret i32 %271
}