; Function Attrs: nounwind uwtable
define internal fastcc i32 @zdd_group_move(ptr noundef %0, i32 noundef %1, i32 noundef %2, ptr noundef nonnull captures(none) %3) unnamed_addr #4 {
  %5 = getelementptr inbounds nuw i8, ptr %0, i64 160
  %6 = load ptr, ptr %5, align 8, !tbaa !3
  %7 = sext i32 %1 to i64
  %8 = getelementptr inbounds %struct.DdSubtable, ptr %6, i64 %7, i32 6
  %9 = load i32, ptr %8, align 4, !tbaa !24
  %10 = sext i32 %2 to i64
  %11 = getelementptr inbounds %struct.DdSubtable, ptr %6, i64 %10, i32 6
  %12 = load i32, ptr %11, align 4, !tbaa !24
  br label %13

13:                                               ; preds = %13, %4
  %.092 = phi i32 [ %12, %4 ], [ %16, %13 ]
  %14 = sext i32 %.092 to i64
  %15 = getelementptr inbounds %struct.DdSubtable, ptr %6, i64 %14, i32 6
  %16 = load i32, ptr %15, align 4, !tbaa !24
  %.not = icmp eq i32 %16, %2
  br i1 %.not, label %.preheader117, label %13, !llvm.loop !117

.preheader117:                                    ; preds = %13
  %.not111128 = icmp sgt i32 %1, %2
  br i1 %.not111128, label %._crit_edge135, label %.preheader.preheader

.preheader.preheader:                             ; preds = %.preheader117
  %17 = sext i32 %9 to i64
  br label %.preheader

.preheader:                                       ; preds = %.preheader.preheader, %._crit_edge
  %18 = phi ptr [ %6, %.preheader.preheader ], [ %44, %._crit_edge ]
  %indvars.iv148 = phi i64 [ %17, %.preheader.preheader ], [ %indvars.iv.next149, %._crit_edge ]
  %indvars.iv = phi i64 [ %7, %.preheader.preheader ], [ %indvars.iv.next, %._crit_edge ]
  %.0134 = phi i32 [ -1, %.preheader.preheader ], [ %.1.lcssa, %._crit_edge ]
  %.088133 = phi i32 [ -1, %.preheader.preheader ], [ %.189.lcssa, %._crit_edge ]
  %.090132 = phi i32 [ %.092, %.preheader.preheader ], [ %21, %._crit_edge ]
  %.0100129 = phi i32 [ %2, %.preheader.preheader ], [ %..1101, %._crit_edge ]
  %indvars150 = trunc i64 %indvars.iv to i32
  %19 = sext i32 %.0100129 to i64
  %20 = icmp slt i64 %indvars.iv148, %19
  %21 = trunc nsw i64 %indvars.iv148 to i32
  br i1 %20, label %.lr.ph, label %._crit_edge

22:                                               ; preds = %41
  %indvars.iv.next146 = add nsw i64 %indvars.iv145, -1
  %23 = icmp sgt i64 %indvars.iv145, %indvars.iv148
  br i1 %23, label %.lr.ph, label %._crit_edge.loopexit, !llvm.loop !118

.lr.ph:                                           ; preds = %.preheader, %22
  %indvars.iv145 = phi i64 [ %indvars.iv.next146, %22 ], [ %indvars.iv, %.preheader ]
  %.191125 = phi i32 [ %.2, %22 ], [ %.090132, %.preheader ]
  %.1101123 = phi i32 [ %27, %22 ], [ %.0100129, %.preheader ]
  %24 = load ptr, ptr %5, align 8, !tbaa !3
  %25 = getelementptr inbounds %struct.DdSubtable, ptr %24, i64 %indvars.iv145, i32 6
  %26 = load i32, ptr %25, align 4, !tbaa !24
  %27 = trunc nsw i64 %indvars.iv145 to i32
  %28 = icmp eq i32 %26, %27
  br label %29

29:                                               ; preds = %29, %.lr.ph
  %.096 = phi i32 [ %21, %.lr.ph ], [ %32, %29 ]
  %30 = sext i32 %.096 to i64
  %31 = getelementptr inbounds %struct.DdSubtable, ptr %24, i64 %30, i32 6
  %32 = load i32, ptr %31, align 4, !tbaa !24
  %33 = icmp eq i32 %32, %27
  br i1 %33, label %34, label %29

34:                                               ; preds = %29
  %spec.select = select i1 %28, i32 %.1101123, i32 %26
  store i32 %.1101123, ptr %31, align 4, !tbaa !24
  %35 = sext i32 %.1101123 to i64
  %36 = getelementptr inbounds %struct.DdSubtable, ptr %24, i64 %35, i32 6
  %37 = load i32, ptr %36, align 4, !tbaa !24
  %.not113 = icmp eq i32 %37, %.1101123
  %.199. = select i1 %.not113, i32 %27, i32 %37
  store i32 %.199., ptr %25, align 4, !tbaa !24
  %.not114 = icmp eq i32 %.191125, %.1101123
  br i1 %.not114, label %41, label %38

38:                                               ; preds = %34
  %39 = sext i32 %.191125 to i64
  %40 = getelementptr inbounds %struct.DdSubtable, ptr %24, i64 %39, i32 6
  store i32 %27, ptr %40, align 4, !tbaa !24
  br label %41

41:                                               ; preds = %34, %38
  %.2 = phi i32 [ %.191125, %38 ], [ %27, %34 ]
  store i32 %spec.select, ptr %36, align 4, !tbaa !24
  %42 = tail call i32 @cuddZddSwapInPlace(ptr noundef %0, i32 noundef %27, i32 noundef %.1101123) #11
  %43 = icmp eq i32 %42, 0
  br i1 %43, label %.loopexit116, label %22

._crit_edge.loopexit:                             ; preds = %22
  %.pre = load ptr, ptr %5, align 8, !tbaa !3
  %sext = shl i64 %indvars.iv145, 32
  %.pre153 = ashr exact i64 %sext, 32
  br label %._crit_edge

._crit_edge:                                      ; preds = %.preheader, %._crit_edge.loopexit
  %.pre-phi = phi i64 [ %.pre153, %._crit_edge.loopexit ], [ %19, %.preheader ]
  %44 = phi ptr [ %.pre, %._crit_edge.loopexit ], [ %18, %.preheader ]
  %.1101.lcssa = phi i32 [ %27, %._crit_edge.loopexit ], [ %.0100129, %.preheader ]
  %.189.lcssa = phi i32 [ %27, %._crit_edge.loopexit ], [ %.088133, %.preheader ]
  %.1.lcssa = phi i32 [ %.1101123, %._crit_edge.loopexit ], [ %.0134, %.preheader ]
  %45 = getelementptr inbounds %struct.DdSubtable, ptr %44, i64 %.pre-phi, i32 6
  %46 = load i32, ptr %45, align 4, !tbaa !24
  %..1101 = tail call i32 @llvm.umax.i32(i32 %46, i32 %.1101.lcssa)
  %indvars.iv.next149 = add nsw i64 %indvars.iv148, 1
  %indvars.iv.next = add nsw i64 %indvars.iv, 1
  %.not111.not = icmp sgt i32 %..1101, %indvars150
  br i1 %.not111.not, label %.preheader, label %._crit_edge135, !llvm.loop !119

._crit_edge135:                                   ; preds = %._crit_edge, %.preheader117
  %.088.lcssa = phi i32 [ -1, %.preheader117 ], [ %.189.lcssa, %._crit_edge ]
  %.0.lcssa = phi i32 [ -1, %.preheader117 ], [ %.1.lcssa, %._crit_edge ]
  %47 = tail call ptr @cuddDynamicAllocNode(ptr noundef %0) #11
  %48 = icmp eq ptr %47, null
  br i1 %48, label %.loopexit116, label %49

49:                                               ; preds = %._crit_edge135
  store i32 %.088.lcssa, ptr %47, align 8, !tbaa !65
  %50 = getelementptr inbounds nuw i8, ptr %47, i64 4
  store i32 %.0.lcssa, ptr %50, align 4, !tbaa !59
  %51 = getelementptr inbounds nuw i8, ptr %0, i64 232
  %52 = load i32, ptr %51, align 8, !tbaa !54
  %53 = getelementptr inbounds nuw i8, ptr %47, i64 12
  store i32 %52, ptr %53, align 4, !tbaa !105
  %54 = load ptr, ptr %3, align 8, !tbaa !102
  %55 = getelementptr inbounds nuw i8, ptr %47, i64 16
  store ptr %54, ptr %55, align 8, !tbaa !71
  store ptr %47, ptr %3, align 8, !tbaa !102
  br label %.loopexit

.loopexit116:                                     ; preds = %41, %._crit_edge135
  %.pr = load ptr, ptr %3, align 8, !tbaa !102
  %.not115138 = icmp eq ptr %.pr, null
  br i1 %.not115138, label %.loopexit, label %.lr.ph140

.lr.ph140:                                        ; preds = %.loopexit116
  %56 = getelementptr inbounds nuw i8, ptr %0, i64 400
  %.promoted = load ptr, ptr %56, align 8, !tbaa !70
  br label %57

57:                                               ; preds = %.lr.ph140, %57
  %58 = phi ptr [ %.promoted, %.lr.ph140 ], [ %59, %57 ]
  %59 = phi ptr [ %.pr, %.lr.ph140 ], [ %61, %57 ]
  %60 = getelementptr inbounds nuw i8, ptr %59, i64 16
  %61 = load ptr, ptr %60, align 8, !tbaa !71
  %62 = getelementptr inbounds nuw i8, ptr %59, i64 4
  store i32 0, ptr %62, align 4, !tbaa !40
  %63 = getelementptr inbounds nuw i8, ptr %59, i64 8
  store ptr %58, ptr %63, align 8, !tbaa !72
  store ptr %61, ptr %3, align 8, !tbaa !102
  %.not115 = icmp eq ptr %61, null
  br i1 %.not115, label %..loopexit_crit_edge, label %57, !llvm.loop !120

..loopexit_crit_edge:                             ; preds = %57
  store ptr %59, ptr %56, align 8, !tbaa !70
  br label %.loopexit

.loopexit:                                        ; preds = %.loopexit116, %..loopexit_crit_edge, %49
  %.097 = phi i32 [ %52, %49 ], [ 0, %..loopexit_crit_edge ], [ 0, %.loopexit116 ]
  ret i32 %.097
}